; Function Attrs: mustprogress nofree norecurse nosync nounwind willreturn memory(readwrite, inaccessiblemem: none) uwtable
define dso_local void @_ZN4llvm9DbgRecord11insertAfterEPS0_(ptr noundef nonnull align 8 dereferenceable(33) %0, ptr nocapture noundef readonly %1) local_unnamed_addr #9 align 2 {
  %3 = getelementptr inbounds nuw i8, ptr %1, i64 16
  %4 = load ptr, ptr %3, align 8
  %5 = getelementptr inbounds nuw i8, ptr %1, i64 8
  %6 = load ptr, ptr %5, align 8
  %7 = load ptr, ptr %6, align 8
  %8 = getelementptr inbounds nuw i8, ptr %0, i64 8
  store ptr %6, ptr %8, align 8
  store ptr %7, ptr %0, align 8
  %9 = getelementptr inbounds nuw i8, ptr %7, i64 8
  store ptr %0, ptr %9, align 8
  store ptr %0, ptr %6, align 8
  %10 = getelementptr inbounds nuw i8, ptr %0, i64 16
  store ptr %4, ptr %10, align 8
  ret void
}